target datalayout = "e-m:e-p270:32:32-p271:32:32-p272:64:64-i64:64-i128:128-f80:128-n8:16:32:64-S128"
target triple = "x86_64-pc-linux-gnu"

; Function Attrs: inlinehint mustprogress nounwind uwtable
define internal noundef ptr @_ZL11_appendUTF8Phi(ptr noundef %0, i32 noundef %1) #2 {
  %3 = alloca ptr, align 8
  %4 = alloca i32, align 4
  store ptr %0, ptr %3, align 8, !tbaa !25
  store i32 %1, ptr %4, align 4, !tbaa !8
  %5 = load i32, ptr %4, align 4, !tbaa !8
  %6 = icmp sle i32 %5, 127
  br i1 %6, label %7, label %12

7:                                                ; preds = %2
  %8 = load i32, ptr %4, align 4, !tbaa !8
  %9 = trunc i32 %8 to i8
  %10 = load ptr, ptr %3, align 8, !tbaa !25
  %11 = getelementptr inbounds nuw i8, ptr %10, i32 1
  store ptr %11, ptr %3, align 8, !tbaa !25
  store i8 %9, ptr %10, align 1, !tbaa !27
  br label %80

12:                                               ; preds = %2
  %13 = load i32, ptr %4, align 4, !tbaa !8
  %14 = icmp sle i32 %13, 2047
  br i1 %14, label %15, label %28

15:                                               ; preds = %12
  %16 = load i32, ptr %4, align 4, !tbaa !8
  %17 = ashr i32 %16, 6
  %18 = or i32 %17, 192
  %19 = trunc i32 %18 to i8
  %20 = load ptr, ptr %3, align 8, !tbaa !25
  %21 = getelementptr inbounds nuw i8, ptr %20, i32 1
  store ptr %21, ptr %3, align 8, !tbaa !25
  store i8 %19, ptr %20, align 1, !tbaa !27
  %22 = load i32, ptr %4, align 4, !tbaa !8
  %23 = and i32 %22, 63
  %24 = or i32 %23, 128
  %25 = trunc i32 %24 to i8
  %26 = load ptr, ptr %3, align 8, !tbaa !25
  %27 = getelementptr inbounds nuw i8, ptr %26, i32 1
  store ptr %27, ptr %3, align 8, !tbaa !25
  store i8 %25, ptr %26, align 1, !tbaa !27
  br label %79

28:                                               ; preds = %12
  %29 = load i32, ptr %4, align 4, !tbaa !8
  %30 = icmp sle i32 %29, 65535
  br i1 %30, label %31, label %51

31:                                               ; preds = %28
  %32 = load i32, ptr %4, align 4, !tbaa !8
  %33 = ashr i32 %32, 12
  %34 = or i32 %33, 224
  %35 = trunc i32 %34 to i8
  %36 = load ptr, ptr %3, align 8, !tbaa !25
  %37 = getelementptr inbounds nuw i8, ptr %36, i32 1
  store ptr %37, ptr %3, align 8, !tbaa !25
  store i8 %35, ptr %36, align 1, !tbaa !27
  %38 = load i32, ptr %4, align 4, !tbaa !8
  %39 = ashr i32 %38, 6
  %40 = and i32 %39, 63
  %41 = or i32 %40, 128
  %42 = trunc i32 %41 to i8
  %43 = load ptr, ptr %3, align 8, !tbaa !25
  %44 = getelementptr inbounds nuw i8, ptr %43, i32 1
  store ptr %44, ptr %3, align 8, !tbaa !25
  store i8 %42, ptr %43, align 1, !tbaa !27
  %45 = load i32, ptr %4, align 4, !tbaa !8
  %46 = and i32 %45, 63
  %47 = or i32 %46, 128
  %48 = trunc i32 %47 to i8
  %49 = load ptr, ptr %3, align 8, !tbaa !25
  %50 = getelementptr inbounds nuw i8, ptr %49, i32 1
  store ptr %50, ptr %3, align 8, !tbaa !25
  store i8 %48, ptr %49, align 1, !tbaa !27
  br label %78

51:                                               ; preds = %28
  %52 = load i32, ptr %4, align 4, !tbaa !8
  %53 = ashr i32 %52, 18
  %54 = or i32 %53, 240
  %55 = trunc i32 %54 to i8
  %56 = load ptr, ptr %3, align 8, !tbaa !25
  %57 = getelementptr inbounds nuw i8, ptr %56, i32 1
  store ptr %57, ptr %3, align 8, !tbaa !25
  store i8 %55, ptr %56, align 1, !tbaa !27
  %58 = load i32, ptr %4, align 4, !tbaa !8
  %59 = ashr i32 %58, 12
  %60 = and i32 %59, 63
  %61 = or i32 %60, 128
  %62 = trunc i32 %61 to i8
  %63 = load ptr, ptr %3, align 8, !tbaa !25
  %64 = getelementptr inbounds nuw i8, ptr %63, i32 1
  store ptr %64, ptr %3, align 8, !tbaa !25
  store i8 %62, ptr %63, align 1, !tbaa !27
  %65 = load i32, ptr %4, align 4, !tbaa !8
  %66 = ashr i32 %65, 6
  %67 = and i32 %66, 63
  %68 = or i32 %67, 128
  %69 = trunc i32 %68 to i8
  %70 = load ptr, ptr %3, align 8, !tbaa !25
  %71 = getelementptr inbounds nuw i8, ptr %70, i32 1
  store ptr %71, ptr %3, align 8, !tbaa !25
  store i8 %69, ptr %70, align 1, !tbaa !27
  %72 = load i32, ptr %4, align 4, !tbaa !8
  %73 = and i32 %72, 63
  %74 = or i32 %73, 128
  %75 = trunc i32 %74 to i8
  %76 = load ptr, ptr %3, align 8, !tbaa !25
  %77 = getelementptr inbounds nuw i8, ptr %76, i32 1
  store ptr %77, ptr %3, align 8, !tbaa !25
  store i8 %75, ptr %76, align 1, !tbaa !27
  br label %78

78:                                               ; preds = %51, %31
  br label %79

79:                                               ; preds = %78, %15
  br label %80

80:                                               ; preds = %79, %7
  %81 = load ptr, ptr %3, align 8, !tbaa !25
  ret ptr %81
}