; Function Attrs: inlinehint mustprogress nofree norecurse nosync nounwind willreturn memory(argmem: write) uwtable
define internal fastcc noundef nonnull ptr @_ZL11_appendUTF8Phi(ptr noundef writeonly initializes((0, 1)) %0, i32 noundef range(i32 0, 2170880) %1) unnamed_addr #3 {
  %3 = icmp samesign ult i32 %1, 128
  br i1 %3, label %4, label %7

4:                                                ; preds = %2
  %5 = trunc nuw nsw i32 %1 to i8
  %6 = getelementptr inbounds nuw i8, ptr %0, i64 1
  store i8 %5, ptr %0, align 1, !tbaa !19
  br label %51

7:                                                ; preds = %2
  %8 = icmp samesign ult i32 %1, 2048
  br i1 %8, label %9, label %18

9:                                                ; preds = %7
  %10 = lshr i32 %1, 6
  %11 = trunc nuw i32 %10 to i8
  %12 = or disjoint i8 %11, -64
  %13 = getelementptr inbounds nuw i8, ptr %0, i64 1
  store i8 %12, ptr %0, align 1, !tbaa !19
  %14 = trunc i32 %1 to i8
  %15 = and i8 %14, 63
  %16 = or disjoint i8 %15, -128
  %17 = getelementptr inbounds nuw i8, ptr %0, i64 2
  store i8 %16, ptr %13, align 1, !tbaa !19
  br label %51

18:                                               ; preds = %7
  %19 = icmp samesign ult i32 %1, 65536
  %20 = getelementptr inbounds nuw i8, ptr %0, i64 1
  %21 = getelementptr inbounds nuw i8, ptr %0, i64 2
  br i1 %19, label %22, label %34

22:                                               ; preds = %18
  %23 = lshr i32 %1, 12
  %24 = trunc nuw i32 %23 to i8
  %25 = or disjoint i8 %24, -32
  store i8 %25, ptr %0, align 1, !tbaa !19
  %26 = lshr i32 %1, 6
  %27 = trunc i32 %26 to i8
  %28 = and i8 %27, 63
  %29 = or disjoint i8 %28, -128
  store i8 %29, ptr %20, align 1, !tbaa !19
  %30 = trunc i32 %1 to i8
  %31 = and i8 %30, 63
  %32 = or disjoint i8 %31, -128
  %33 = getelementptr inbounds nuw i8, ptr %0, i64 3
  store i8 %32, ptr %21, align 1, !tbaa !19
  br label %51

34:                                               ; preds = %18
  %35 = lshr i32 %1, 18
  %36 = trunc nuw nsw i32 %35 to i8
  %37 = or disjoint i8 %36, -16
  store i8 %37, ptr %0, align 1, !tbaa !19
  %38 = lshr i32 %1, 12
  %39 = trunc i32 %38 to i8
  %40 = and i8 %39, 63
  %41 = or disjoint i8 %40, -128
  store i8 %41, ptr %20, align 1, !tbaa !19
  %42 = lshr i32 %1, 6
  %43 = trunc i32 %42 to i8
  %44 = and i8 %43, 63
  %45 = or disjoint i8 %44, -128
  %46 = getelementptr inbounds nuw i8, ptr %0, i64 3
  store i8 %45, ptr %21, align 1, !tbaa !19
  %47 = trunc i32 %1 to i8
  %48 = and i8 %47, 63
  %49 = or disjoint i8 %48, -128
  %50 = getelementptr inbounds nuw i8, ptr %0, i64 4
  store i8 %49, ptr %46, align 1, !tbaa !19
  br label %51

51:                                               ; preds = %9, %34, %22, %4
  %.0 = phi ptr [ %6, %4 ], [ %17, %9 ], [ %33, %22 ], [ %50, %34 ]
  ret ptr %.0
}